; ModuleID = '54/292.c'
source_filename = "54/292.c"
target datalayout = "e-m:e-p270:32:32-p271:32:32-p272:64:64-i64:64-f80:128-n8:16:32:64-S128"
target triple = "x86_64-pc-linux-gnu"

@.str = private unnamed_addr constant [6 x i8] c"%d %d\00", align 1
@.str.1 = private unnamed_addr constant [3 x i8] c"%d\00", align 1

; Function Attrs: noinline nounwind uwtable
define dso_local void @main() #0 {
  %1 = alloca i32, align 4
  %2 = alloca i32, align 4
  %3 = alloca i32, align 4
  %4 = alloca i32, align 4
  %5 = alloca i32, align 4
  %6 = alloca i32, align 4
  store i32 1, i32* %5, align 4
  %7 = call i32 (i8*, ...) @__isoc99_scanf(i8* getelementptr inbounds ([6 x i8], [6 x i8]* @.str, i64 0, i64 0), i32* %3, i32* %4)
  %8 = load i32, i32* %3, align 4
  %9 = load i32, i32* %4, align 4
  %10 = add nsw i32 %8, %9
  %11 = load i32, i32* %3, align 4
  %12 = sub nsw i32 %11, 1
  %13 = load i32, i32* %3, align 4
  %14 = load i32, i32* %4, align 4
  %15 = mul nsw i32 2, %14
  %16 = add nsw i32 %13, %15
  %17 = mul nsw i32 %12, %16
  %18 = add nsw i32 %10, %17
  store i32 %18, i32* %1, align 4
  br label %19

19:                                               ; preds = %56, %0
  %20 = load i32, i32* %5, align 4
  %21 = icmp ne i32 %20, 0
  br i1 %21, label %22, label %59

22:                                               ; preds = %19
  %23 = load i32, i32* %1, align 4
  store i32 %23, i32* %2, align 4
  store i32 1, i32* %6, align 4
  br label %24

24:                                               ; preds = %44, %22
  %25 = load i32, i32* %6, align 4
  %26 = load i32, i32* %3, align 4
  %27 = icmp sle i32 %25, %26
  br i1 %27, label %28, label %47

28:                                               ; preds = %24
  %29 = load i32, i32* %2, align 4
  %30 = load i32, i32* %3, align 4
  %31 = srem i32 %29, %30
  %32 = load i32, i32* %4, align 4
  %33 = icmp eq i32 %31, %32
  br i1 %33, label %34, label %42

34:                                               ; preds = %28
  %35 = load i32, i32* %2, align 4
  %36 = load i32, i32* %2, align 4
  %37 = load i32, i32* %3, align 4
  %38 = sdiv i32 %36, %37
  %39 = sub nsw i32 %35, %38
  %40 = load i32, i32* %4, align 4
  %41 = sub nsw i32 %39, %40
  store i32 %41, i32* %2, align 4
  br label %43

42:                                               ; preds = %28
  br label %47

43:                                               ; preds = %34
  br label %44

44:                                               ; preds = %43
  %45 = load i32, i32* %6, align 4
  %46 = add nsw i32 %45, 1
  store i32 %46, i32* %6, align 4
  br label %24

47:                                               ; preds = %42, %24
  %48 = load i32, i32* %6, align 4
  %49 = load i32, i32* %3, align 4
  %50 = add nsw i32 %49, 1
  %51 = icmp eq i32 %48, %50
  br i1 %51, label %52, label %55

52:                                               ; preds = %47
  %53 = load i32, i32* %1, align 4
  %54 = call i32 (i8*, ...) @printf(i8* getelementptr inbounds ([3 x i8], [3 x i8]* @.str.1, i64 0, i64 0), i32 %53)
  store i32 0, i32* %5, align 4
  br label %55

55:                                               ; preds = %52, %47
  br label %56

56:                                               ; preds = %55
  %57 = load i32, i32* %1, align 4
  %58 = add nsw i32 %57, 1
  store i32 %58, i32* %1, align 4
  br label %19

59:                                               ; preds = %19
  ret void
}

declare dso_local i32 @__isoc99_scanf(i8*, ...) #1

declare dso_local i32 @printf(i8*, ...) #1


!llvm.module.flags = !{!0}
!llvm.ident = !{!1}

!0 = !{i32 1, !"wchar_size", i32 4}
!1 = !{!"clang version 10.0.0-4ubuntu1 "}
