; ModuleID = 'source-C-CXX/53/292.c'
source_filename = "source-C-CXX/53/292.c"
target datalayout = "e-m:e-p270:32:32-p271:32:32-p272:64:64-i64:64-f80:128-n8:16:32:64-S128"
target triple = "x86_64-pc-linux-gnu"

@.str = private unnamed_addr constant [6 x i8] c"%d %d\00", align 1
@.str.1 = private unnamed_addr constant [3 x i8] c"%d\00", align 1

; Function Attrs: nofree nounwind sspstrong uwtable
define dso_local void @main() local_unnamed_addr #0 {
  %1 = alloca i32, align 4
  %2 = alloca i32, align 4
  %3 = bitcast i32* %1 to i8*
  call void @llvm.lifetime.start.p0i8(i64 4, i8* nonnull %3) #3
  %4 = bitcast i32* %2 to i8*
  call void @llvm.lifetime.start.p0i8(i64 4, i8* nonnull %4) #3
  %5 = call i32 (i8*, ...) @__isoc99_scanf(i8* getelementptr inbounds ([6 x i8], [6 x i8]* @.str, i64 0, i64 0), i32* nonnull %1, i32* nonnull %2)
  %6 = load i32, i32* %1, align 4, !tbaa !5
  %7 = load i32, i32* %2, align 4, !tbaa !5
  %8 = add nsw i32 %7, %6
  %9 = add nsw i32 %6, -1
  %10 = shl nsw i32 %7, 1
  %11 = add nsw i32 %10, %6
  %12 = mul nsw i32 %11, %9
  %13 = add nsw i32 %8, %12
  %14 = load i32, i32* %1, align 4
  %15 = load i32, i32* %2, align 4
  br label %16

16:                                               ; preds = %36, %0
  %17 = phi i32 [ %7, %0 ], [ %15, %36 ]
  %18 = phi i32 [ %6, %0 ], [ %14, %36 ]
  %19 = phi i32 [ %13, %0 ], [ %37, %36 ]
  %20 = icmp slt i32 %18, 1
  %21 = add i32 %18, 1
  br i1 %20, label %33, label %22

22:                                               ; preds = %16, %28
  %23 = phi i32 [ %31, %28 ], [ 1, %16 ]
  %24 = phi i32 [ %30, %28 ], [ %19, %16 ]
  %25 = srem i32 %24, %18
  %26 = sdiv i32 %24, %18
  %27 = icmp eq i32 %25, %17
  br i1 %27, label %28, label %33

28:                                               ; preds = %22
  %29 = add i32 %17, %26
  %30 = sub i32 %24, %29
  %31 = add nuw i32 %23, 1
  %32 = icmp eq i32 %23, %18
  br i1 %32, label %38, label %22, !llvm.loop !9

33:                                               ; preds = %22, %16
  %34 = phi i32 [ 1, %16 ], [ %23, %22 ]
  %35 = icmp eq i32 %34, %21
  br i1 %35, label %38, label %36

36:                                               ; preds = %33
  %37 = add nsw i32 %19, 1
  br label %16

38:                                               ; preds = %33, %28
  %39 = call i32 (i8*, ...) @printf(i8* nonnull dereferenceable(1) getelementptr inbounds ([3 x i8], [3 x i8]* @.str.1, i64 0, i64 0), i32 %19)
  call void @llvm.lifetime.end.p0i8(i64 4, i8* nonnull %4) #3
  call void @llvm.lifetime.end.p0i8(i64 4, i8* nonnull %3) #3
  ret void
}

; Function Attrs: argmemonly mustprogress nofree nosync nounwind willreturn
declare void @llvm.lifetime.start.p0i8(i64 immarg, i8* nocapture) #1

; Function Attrs: nofree nounwind
declare noundef i32 @__isoc99_scanf(i8* nocapture noundef readonly, ...) local_unnamed_addr #2

; Function Attrs: nofree nounwind
declare noundef i32 @printf(i8* nocapture noundef readonly, ...) local_unnamed_addr #2

; Function Attrs: argmemonly mustprogress nofree nosync nounwind willreturn
declare void @llvm.lifetime.end.p0i8(i64 immarg, i8* nocapture) #1


!llvm.module.flags = !{!0, !1, !2, !3}
!llvm.ident = !{!4}

!0 = !{i32 1, !"wchar_size", i32 4}
!1 = !{i32 7, !"PIC Level", i32 2}
!2 = !{i32 7, !"PIE Level", i32 2}
!3 = !{i32 7, !"uwtable", i32 1}
!4 = !{!"clang version 13.0.0"}
!5 = !{!6, !6, i64 0}
!6 = !{!"int", !7, i64 0}
!7 = !{!"omnipotent char", !8, i64 0}
!8 = !{!"Simple C/C++ TBAA"}
!9 = distinct !{!9, !10}
!10 = !{!"llvm.loop.mustprogress"}
